target datalayout = "e-m:e-p270:32:32-p271:32:32-p272:64:64-i64:64-i128:128-f80:128-n8:16:32:64-S128"
target triple = "x86_64-pc-linux-gnu"

%struct.strbuf = type { i64, i64, ptr }
%struct.option = type { i32, i32, ptr, ptr, ptr, ptr, i32, ptr, i64, ptr, i64, ptr }

@.str.14 = private unnamed_addr constant [22 x i8] c"builtin/commit-tree.c\00", align 1
@.str.15 = private unnamed_addr constant [41 x i8] c"option callback does not expect negation\00", align 1
@.str.16 = private unnamed_addr constant [36 x i8] c"option callback expects an argument\00", align 1
@.str.18 = private unnamed_addr constant [2 x i8] c"-\00", align 1
@.str.19 = private unnamed_addr constant [37 x i8] c"git commit-tree: failed to read '%s'\00", align 1
@.str.20 = private unnamed_addr constant [38 x i8] c"git commit-tree: failed to close '%s'\00", align 1

; Function Attrs: inlinehint nounwind uwtable
define internal i64 @strbuf_avail(ptr noundef %0) #3 {
  %2 = alloca ptr, align 8
  store ptr %0, ptr %2, align 8, !tbaa !38
  %3 = load ptr, ptr %2, align 8, !tbaa !38
  %4 = getelementptr inbounds nuw %struct.strbuf, ptr %3, i32 0, i32 0
  %5 = load i64, ptr %4, align 8, !tbaa !51
  %6 = icmp ne i64 %5, 0
  br i1 %6, label %7, label %16

7:                                                ; preds = %1
  %8 = load ptr, ptr %2, align 8, !tbaa !38
  %9 = getelementptr inbounds nuw %struct.strbuf, ptr %8, i32 0, i32 0
  %10 = load i64, ptr %9, align 8, !tbaa !51
  %11 = load ptr, ptr %2, align 8, !tbaa !38
  %12 = getelementptr inbounds nuw %struct.strbuf, ptr %11, i32 0, i32 1
  %13 = load i64, ptr %12, align 8, !tbaa !31
  %14 = sub i64 %10, %13
  %15 = sub i64 %14, 1
  br label %17

16:                                               ; preds = %1
  br label %17

17:                                               ; preds = %16, %7
  %18 = phi i64 [ %15, %7 ], [ 0, %16 ]
  ret i64 %18
}

; Function Attrs: inlinehint nounwind uwtable
define internal void @strbuf_addch(ptr noundef %0, i32 noundef %1) #3 {
  %3 = alloca ptr, align 8
  %4 = alloca i32, align 4
  store ptr %0, ptr %3, align 8, !tbaa !38
  store i32 %1, ptr %4, align 4, !tbaa !4
  %5 = load ptr, ptr %3, align 8, !tbaa !38
  %6 = call i64 @strbuf_avail(ptr noundef %5)
  %7 = icmp ne i64 %6, 0
  br i1 %7, label %10, label %8

8:                                                ; preds = %2
  %9 = load ptr, ptr %3, align 8, !tbaa !38
  call void @strbuf_grow(ptr noundef %9, i64 noundef 1)
  br label %10

10:                                               ; preds = %8, %2
  %11 = load i32, ptr %4, align 4, !tbaa !4
  %12 = trunc i32 %11 to i8
  %13 = load ptr, ptr %3, align 8, !tbaa !38
  %14 = getelementptr inbounds nuw %struct.strbuf, ptr %13, i32 0, i32 2
  %15 = load ptr, ptr %14, align 8, !tbaa !33
  %16 = load ptr, ptr %3, align 8, !tbaa !38
  %17 = getelementptr inbounds nuw %struct.strbuf, ptr %16, i32 0, i32 1
  %18 = load i64, ptr %17, align 8, !tbaa !31
  %19 = add i64 %18, 1
  store i64 %19, ptr %17, align 8, !tbaa !31
  %20 = getelementptr inbounds nuw i8, ptr %15, i64 %18
  store i8 %12, ptr %20, align 1, !tbaa !41
  %21 = load ptr, ptr %3, align 8, !tbaa !38
  %22 = getelementptr inbounds nuw %struct.strbuf, ptr %21, i32 0, i32 2
  %23 = load ptr, ptr %22, align 8, !tbaa !33
  %24 = load ptr, ptr %3, align 8, !tbaa !38
  %25 = getelementptr inbounds nuw %struct.strbuf, ptr %24, i32 0, i32 1
  %26 = load i64, ptr %25, align 8, !tbaa !31
  %27 = getelementptr inbounds nuw i8, ptr %23, i64 %26
  store i8 0, ptr %27, align 1, !tbaa !41
  ret void
}

; Function Attrs: nounwind uwtable
define internal i32 @parse_file_arg_callback(ptr noundef %0, ptr noundef %1, i32 noundef %2) #0 {
  %4 = alloca ptr, align 8
  %5 = alloca ptr, align 8
  %6 = alloca i32, align 4
  %7 = alloca i32, align 4
  %8 = alloca ptr, align 8
  store ptr %0, ptr %4, align 8, !tbaa !34
  store ptr %1, ptr %5, align 8, !tbaa !11
  store i32 %2, ptr %6, align 4, !tbaa !4
  call void @llvm.lifetime.start.p0(i64 4, ptr %7) #8
  call void @llvm.lifetime.start.p0(i64 8, ptr %8) #8
  %9 = load ptr, ptr %4, align 8, !tbaa !34
  %10 = getelementptr inbounds nuw %struct.option, ptr %9, i32 0, i32 3
  %11 = load ptr, ptr %10, align 8, !tbaa !22
  store ptr %11, ptr %8, align 8, !tbaa !38
  br label %12

12:                                               ; preds = %3
  br label %13

13:                                               ; preds = %12
  %14 = load i32, ptr %6, align 4, !tbaa !4
  %15 = icmp ne i32 %14, 0
  br i1 %15, label %16, label %17

16:                                               ; preds = %13
  call void (ptr, i32, ptr, ...) @BUG_fl(ptr noundef @.str.14, i32 noundef 77, ptr noundef @.str.15) #9
  unreachable

17:                                               ; preds = %13
  br label %18

18:                                               ; preds = %17
  br label %19

19:                                               ; preds = %18
  %20 = load ptr, ptr %5, align 8, !tbaa !11
  %21 = icmp ne ptr %20, null
  br i1 %21, label %23, label %22

22:                                               ; preds = %19
  call void (ptr, i32, ptr, ...) @BUG_fl(ptr noundef @.str.14, i32 noundef 77, ptr noundef @.str.16) #9
  unreachable

23:                                               ; preds = %19
  br label %24

24:                                               ; preds = %23
  br label %25

25:                                               ; preds = %24
  %26 = load ptr, ptr %8, align 8, !tbaa !38
  %27 = getelementptr inbounds nuw %struct.strbuf, ptr %26, i32 0, i32 1
  %28 = load i64, ptr %27, align 8, !tbaa !31
  %29 = icmp ne i64 %28, 0
  br i1 %29, label %30, label %32

30:                                               ; preds = %25
  %31 = load ptr, ptr %8, align 8, !tbaa !38
  call void @strbuf_addch(ptr noundef %31, i32 noundef 10)
  br label %32

32:                                               ; preds = %30, %25
  %33 = load ptr, ptr %5, align 8, !tbaa !11
  %34 = call i32 @strcmp(ptr noundef %33, ptr noundef @.str.18) #10
  %35 = icmp ne i32 %34, 0
  br i1 %35, label %37, label %36

36:                                               ; preds = %32
  store i32 0, ptr %7, align 4, !tbaa !4
  br label %40

37:                                               ; preds = %32
  %38 = load ptr, ptr %5, align 8, !tbaa !11
  %39 = call i32 (ptr, i32, ...) @xopen(ptr noundef %38, i32 noundef 0)
  store i32 %39, ptr %7, align 4, !tbaa !4
  br label %40

40:                                               ; preds = %37, %36
  %41 = load ptr, ptr %8, align 8, !tbaa !38
  %42 = load i32, ptr %7, align 4, !tbaa !4
  %43 = call i64 @strbuf_read(ptr noundef %41, i32 noundef %42, i64 noundef 0)
  %44 = icmp slt i64 %43, 0
  br i1 %44, label %45, label %48

45:                                               ; preds = %40
  %46 = call ptr @_(ptr noundef @.str.19)
  %47 = load ptr, ptr %5, align 8, !tbaa !11
  call void (ptr, ...) @die_errno(ptr noundef %46, ptr noundef %47) #9
  unreachable

48:                                               ; preds = %40
  %49 = load i32, ptr %7, align 4, !tbaa !4
  %50 = icmp ne i32 %49, 0
  br i1 %50, label %51, label %58

51:                                               ; preds = %48
  %52 = load i32, ptr %7, align 4, !tbaa !4
  %53 = call i32 @close(i32 noundef %52)
  %54 = icmp ne i32 %53, 0
  br i1 %54, label %55, label %58

55:                                               ; preds = %51
  %56 = call ptr @_(ptr noundef @.str.20)
  %57 = load ptr, ptr %5, align 8, !tbaa !11
  call void (ptr, ...) @die_errno(ptr noundef %56, ptr noundef %57) #9
  unreachable

58:                                               ; preds = %51, %48
  call void @llvm.lifetime.end.p0(i64 8, ptr %8) #8
  call void @llvm.lifetime.end.p0(i64 4, ptr %7) #8
  ret i32 0
}