; Function Attrs: nounwind uwtable
define internal noundef i32 @parse_file_arg_callback(ptr noundef readonly captures(none) %0, ptr noundef %1, i32 noundef %2) #0 {
  %4 = getelementptr inbounds nuw i8, ptr %0, i64 16
  %5 = load ptr, ptr %4, align 8, !tbaa !16
  %.not = icmp eq i32 %2, 0
  br i1 %.not, label %7, label %6

6:                                                ; preds = %3
  tail call void (ptr, i32, ptr, ...) @BUG_fl(ptr noundef nonnull @.str.14, i32 noundef 77, ptr noundef nonnull @.str.15) #10
  unreachable

7:                                                ; preds = %3
  %.not13 = icmp eq ptr %1, null
  br i1 %.not13, label %8, label %9

8:                                                ; preds = %7
  tail call void (ptr, i32, ptr, ...) @BUG_fl(ptr noundef nonnull @.str.14, i32 noundef 77, ptr noundef nonnull @.str.16) #10
  unreachable

9:                                                ; preds = %7
  %10 = getelementptr inbounds nuw i8, ptr %5, i64 8
  %11 = load i64, ptr %10, align 8, !tbaa !25
  %.not14 = icmp eq i64 %11, 0
  br i1 %.not14, label %sub_0, label %12

12:                                               ; preds = %9
  %13 = load i64, ptr %5, align 8, !tbaa !34
  %.not.i.i = icmp eq i64 %13, 0
  %.neg.i = add i64 %11, 1
  %.not.i = icmp eq i64 %13, %.neg.i
  %or.cond = or i1 %.not.i.i, %.not.i
  br i1 %or.cond, label %strbuf_avail.exit.thread.i, label %strbuf_addch.exit

strbuf_avail.exit.thread.i:                       ; preds = %12
  tail call void @strbuf_grow(ptr noundef nonnull %5, i64 noundef 1) #9
  %.pre.i = load i64, ptr %10, align 8, !tbaa !25
  %.pre7.i = add i64 %.pre.i, 1
  br label %strbuf_addch.exit

strbuf_addch.exit:                                ; preds = %12, %strbuf_avail.exit.thread.i
  %.pre-phi.i = phi i64 [ %.pre7.i, %strbuf_avail.exit.thread.i ], [ %.neg.i, %12 ]
  %14 = phi i64 [ %.pre.i, %strbuf_avail.exit.thread.i ], [ %11, %12 ]
  %15 = getelementptr inbounds nuw i8, ptr %5, i64 16
  %16 = load ptr, ptr %15, align 8, !tbaa !27
  store i64 %.pre-phi.i, ptr %10, align 8, !tbaa !25
  %17 = getelementptr inbounds nuw i8, ptr %16, i64 %14
  store i8 10, ptr %17, align 1, !tbaa !35
  %18 = load ptr, ptr %15, align 8, !tbaa !27
  %19 = load i64, ptr %10, align 8, !tbaa !25
  %20 = getelementptr inbounds nuw i8, ptr %18, i64 %19
  store i8 0, ptr %20, align 1, !tbaa !35
  br label %sub_0

sub_0:                                            ; preds = %9, %strbuf_addch.exit
  %21 = load i8, ptr %1, align 1
  %.not23 = icmp eq i8 %21, 45
  br i1 %.not23, label %.tail, label %.tail.thread

.tail:                                            ; preds = %sub_0
  %22 = getelementptr inbounds nuw i8, ptr %1, i64 1
  %23 = load i8, ptr %22, align 1
  %24 = icmp eq i8 %23, 0
  br i1 %24, label %.thread, label %.tail.thread

.tail.thread:                                     ; preds = %sub_0, %.tail
  %25 = tail call i32 (ptr, i32, ...) @xopen(ptr noundef nonnull %1, i32 noundef 0) #9
  %26 = tail call i64 @strbuf_read(ptr noundef nonnull %5, i32 noundef %25, i64 noundef 0) #9
  %27 = icmp slt i64 %26, 0
  br i1 %27, label %30, label %32

.thread:                                          ; preds = %.tail
  %28 = tail call i64 @strbuf_read(ptr noundef nonnull %5, i32 noundef 0, i64 noundef 0) #9
  %29 = icmp slt i64 %28, 0
  br i1 %29, label %30, label %.thread20

30:                                               ; preds = %.thread, %.tail.thread
  %31 = tail call fastcc ptr @_(ptr noundef nonnull @.str.19)
  tail call void (ptr, ...) @die_errno(ptr noundef %31, ptr noundef nonnull %1) #10
  unreachable

32:                                               ; preds = %.tail.thread
  %.not16 = icmp eq i32 %25, 0
  br i1 %.not16, label %.thread20, label %33

33:                                               ; preds = %32
  %34 = tail call i32 @close(i32 noundef %25) #9
  %.not17 = icmp eq i32 %34, 0
  br i1 %.not17, label %.thread20, label %35

35:                                               ; preds = %33
  %36 = tail call fastcc ptr @_(ptr noundef nonnull @.str.20)
  tail call void (ptr, ...) @die_errno(ptr noundef %36, ptr noundef nonnull %1) #10
  unreachable

.thread20:                                        ; preds = %.thread, %33, %32
  ret i32 0
}